(dp1
VAPI_CREATE_LAYER
p2
Vv1/CREATE_LAYER
p3
sVAPI_PUBLISH_LAYER
p4
Vv1/PUBLISH_LAYER
p5
sVDATASERVICE_ACTIVESTORESLIST
p6
Vv1/DATASERVICE_ACTIVESTORESLIST
p7
sVAUTHSERVICE_LOGOUT
p8
Vv1/AUTHSERVICE_LOGOUT
p9
sVAPI_UPDATE_LAYER
p10
Vv1/UPDATE_LAYER
p11
sVSTART_ALL_SERVICES
p12
Vv1/START_ALL_SERVICES
p13
sVCONFIG_REGISTER_DEVICE
p14
Vv1/CONFIG_REGISTER_DEVICE
p15
sVDATASERVICE_DELETEFEATURE
p16
Vv1/DATASERVICE_DELETEFEATURE
p17
sVSENSORSERVICE_GPS
p18
Vv1/SENSORSERVICE_GPS
p19
sVDATASERVICE_STORELIST
p20
Vv1/DATASERVICE_STORELIST
p21
sVCONFIG_REMOVE_STORE
p22
Vv1/CONFIG_REMOVE_STORE
p23
sVBACKENDSERVICE_CONNECTED
p24
Vv1/BACKENDSERVICE_CONNECTED
p25
sVDATASERVICE_QUERYALL
p26
Vv1/DATASERVICE_QUERYALL
p27
sVNOTIFICATION_INFO
p28
Vv1/NOTIFICATION_INFO
p29
sVAPI_REGISTER_LAYER
p30
Vv1/REGISTER_LAYER
p31
sVNOTIFICATION_ALERT
p32
Vv1/NOTIFICATION_ALERT
p33
sVNOTIFICATION_CONTENT_AVAILABLE
p34
Vv1/NOTIFICATION_CONTENT_AVAILABLE
p35
sVAUTHSERVICE_LOGIN_STATUS
p36
Vv1/AUTHSERVICE_LOGIN_STATUS
p37
sVDATASERVICE_CREATEFEATURE
p38
Vv1/DATASERVICE_CREATEFEATURE
p39
sVCONFIG_ADD_FORM
p40
Vv1/CONFIG_ADD_FORM
p41
sVCONFIG_FORM_LIST
p42
Vv1/CONFIG_FORM_LIST
p43
sVCONFIG_UPDATE_FORM
p44
Vv1/CONFIG_UPDATE_FORM
p45
sVDATASERVICE_SPATIALQUERY
p46
Vv1/DATASERVICE_SPATIALQUERY
p47
sVAPI_CREATE_FEATURE
p48
Vv1/CREATE_FEATURE
p49
sVAPI_DELETE_LAYER
p50
Vv1/DELETE_LAYER
p51
sVAPI_UPDATE_FEATURE
p52
Vv1/UPDATE_FEATURE
p53
sVAUTHSERVICE_AUTHENTICATE
p54
Vv1/AUTHSERVICE_AUTHENTICATE
p55
sVAPI_FETCH_LAYERS
p56
Vv1/FETCH_LAYERS
p57
sVDATASERVICE_SPATIALQUERYALL
p58
Vv1/DATASERVICE_SPATIALQUERYALL
p59
sVCONFIG_REMOVE_FORM
p60
Vv1/CONFIG_REMOVE_FORM
p61
sVDATASERVICE_FORMLIST
p62
Vv1/DATASERVICE_FORMLIST
p63
sVNO_ACTION
p64
Vv1/NO_ACTION
p65
sVDATASERVICE_QUERY
p66
Vv1/DATASERVICE_QUERY
p67
sVCONFIG_ADD_STORE
p68
Vv1/CONFIG_ADD_STORE
p69
sVAUTHSERVICE_ACCESS_TOKEN
p70
Vv1/AUTHSERVICE_ACCESS_TOKEN
p71
sVNETWORKSERVICE_POST_REQUEST
p72
Vv1/NETWORKSERVICE_POST_REQUEST
p73
sVCONFIG_FULL
p74
Vv1/CONFIG_FULL
p75
sVCONFIG_STORE_LIST
p76
Vv1/CONFIG_STORE_LIST
p77
sVDEVICE_INFO
p78
Vv1/DEVICE_INFO
p79
sS'_version'
p80
V0.16.6
p81
sVDATASERVICE_UPDATEFEATURE
p82
Vv1/DATASERVICE_UPDATEFEATURE
p83
sVSPATIALIO_IMPORT
p84
Vv1/SPATIALIO_IMPORT
p85
sVNOTIFICATIONS
p86
Vv1/NOTIFICATIONS
p87
sVNETWORKSERVICE_GET_REQUEST
p88
Vv1/NETWORKSERVICE_GET_REQUEST
p89
sVCONFIG_UPDATE_STORE
p90
Vv1/CONFIG_UPDATE_STORE
p91
sVDATASERVICE_ACTIVESTOREBYID
p92
Vv1/DATASERVICE_ACTIVESTOREBYID
p93
sVAPI_DELETE_FEATURE
p94
Vv1/DELETE_FEATURE
p95
sVBACKENDSERVICE_HTTP_URI
p96
Vv1/BACKENDSERVICE_HTTP_URI
p97
s.