(dp1
VAPI_FEATURE_UPDATED
p2
Vv1/API_FEATURE_UPDATED
p3
sVPOSTGIS_DROP_TABLE_ERROR
p4
Vv1/POSTGIS_DROP_TABLE_ERROR
p5
sVAPI_LAYER_UNSUPPORTED_ERROR
p6
Vv1/API_LAYER_UNSUPPORTED_ERROR
p7
sS'_version'
p8
V0.16.6
p9
sVGEOSERVER_LAYER_DELETED
p10
Vv1/GEOSERVER_LAYER_DELETED
p11
sVSIO_RASTER_READ_ERROR
p12
Vv1/SIO_RASTER_READ_ERROR
p13
sVGEOSERVER_CREATE_WORKSPACE_ERROR
p14
Vv1/GEOSERVER_CREATE_WORKSPACE_ERROR
p15
sVGEOSERVER_DATASTORE_UNAVAILABLE
p16
Vv1/GEOSERVER_DATASTORE_UNAVAILABLE
p17
sVAPI_LAYER_UPDATE_ERROR
p18
Vv1/API_LAYER_UPDATE_ERROR
p19
sVAPI_LAYER_PUBLISHED
p20
Vv1/API_LAYER_PUBLISHED
p21
sVAPI_FEATURE_DELETED
p22
Vv1/API_FEATURE_DELETED
p23
sVGEOSERVER_INVALID_NAME_ERROR
p24
Vv1/GEOSERVER_INVALID_NAME_ERROR
p25
sVS3_ERROR
p26
Vv1/S3_ERROR
p27
sVPOSTGIS_LOAD_RECORDS_ERROR
p28
Vv1/POSTGIS_LOAD_RECORDS_ERROR
p29
sVAPI_FEATURE_DELETE_ERROR
p30
Vv1/API_FEATURE_DELETE_ERROR
p31
sVAPI_LAYER_DELETE_ERROR
p32
Vv1/API_LAYER_DELETE_ERROR
p33
sVSIO_FGDB_INVALID_ZIP_FILE_ERROR
p34
Vv1/SIO_FGDB_INVALID_ZIP_FILE_ERROR
p35
sVAPI_FEATURE_PUBLISH_ERROR
p36
Vv1/API_FEATURE_PUBLISH_ERROR
p37
sVGEOSERVER_UNAVAILABLE
p38
Vv1/GEOSERVER_UNAVAILABLE
p39
sVSIO_INVALID_FILE_ERROR
p40
Vv1/SIO_INVALID_FILE_ERROR
p41
sVAPI_LAYER_UPDATED
p42
Vv1/API_LAYER_UPDATED
p43
sVAPI_LAYER_PUBLISH_ERROR
p44
Vv1/API_LAYER_PUBLISH_ERROR
p45
sVGEOSERVER_DELETE_FEATURETYPE_ERROR
p46
Vv1/GEOSERVER_DELETE_FEATURETYPE_ERROR
p47
sVSIO_IMPORT_SUCCESS
p48
Vv1/SIO_IMPORT_SUCCESS
p49
sVGEOSERVER_WORKSPACE_UNAVAILABLE
p50
Vv1/GEOSERVER_WORKSPACE_UNAVAILABLE
p51
sVGEOSERVER_LAYER_PUBLISHED
p52
Vv1/GEOSERVER_LAYER_PUBLISHED
p53
sVAPI_FEATURE_PARSE_ERROR
p54
Vv1/API_FEATURE_PARSE_ERROR
p55
sVGEOSERVER_CREATE_DATASTORE_ERROR
p56
Vv1/GEOSERVER_CREATE_DATASTORE_ERROR
p57
sVAPI_FEATURE_UNSUPPORTED_ERROR
p58
Vv1/API_FEATURE_UNSUPPORTED_ERROR
p59
sVSIO_SHP_MISMATCHED_GEOMETERY_TYPE_ERROR
p60
Vv1/SIO_SHP_MISMATCHED_GEOMETERY_TYPE_ERROR
p61
sVSIO_GEOJSON_INVALID_ATTRIBUTE_TYPE_ERROR
p62
Vv1/SIO_GEOJSON_INVALID_ATTRIBUTE_TYPE_ERROR
p63
sVGEOSERVER_LAYER_PUBLISH_ERROR
p64
Vv1/GEOSERVER_LAYER_PUBLISH_ERROR
p65
sVGEOSERVER_LAYER_UPDATED
p66
Vv1/GEOSERVER_LAYER_UPDATED
p67
sVGEOSERVER_UPDATE_FEATURETYPE_ERROR
p68
Vv1/GEOSERVER_UPDATE_FEATURETYPE_ERROR
p69
sVGEOSERVER_CREATE_FEATURETYPE_ERROR
p70
Vv1/GEOSERVER_CREATE_FEATURETYPE_ERROR
p71
sVSIO_GEOPKG_SCHEMA_MISSING_GEOM_ERROR
p72
Vv1/SIO_GEOPKG_SCHEMA_NO_GEOM_ERROR
p73
sVSIO_MISSING_PROJECTION_ERROR
p74
Vv1/SIO_MISSING_PROJECTION_ERROR
p75
sVNO_LAYERS_FOUND
p76
Vv1/NO_LAYERS_FOUND
p77
sVAPI_FEATURE_CREATED
p78
Vv1/API_FEATURE_CREATED
p79
sVSIO_IMPORT_FAIL
p80
Vv1/SIO_IMPORT_FAIL
p81
sVGEOSERVER_PERMISSION_DENIED
p82
Vv1/GEOSERVER_PERMISSION_DENIED
p83
sVAPI_FEATURE_UPDATE_ERROR
p84
Vv1/API_FEATURE_UPDATE_ERROR
p85
sVAPI_LAYER_DELETED
p86
Vv1/API_LAYER_DELETED
p87
sVNO_FILES_TO_PROCESS
p88
Vv1/NO_FILES_TO_PROCESS
p89
sVPOSTGIS_CREATE_TABLE_ERROR
p90
Vv1/POSTGIS_CREATE_TABLE_ERROR
p91
sVNOT_A_VALID_SPATIAL_FILE
p92
Vv1/NOT_A_VALID_SPATIAL_FILE
p93
sVSIO_INVALID_IMPORT_MSG_ERROR
p94
Vv1/SIO_INVALID_IMPORT_MSG_ERROR
p95
sVSIO_IMPORT_INFO
p96
Vv1/SIO_IMPORT_INFO
p97
s.