(dp1
VGDAL_INFO_SUCCESS
p2
Vv1/GDAL_INFO_SUCCESS
p3
sVPOSTGIS_DROP_TABLE_ERROR
p4
Vv1/POSTGIS_DROP_TABLE_ERROR
p5
sVGEOSERVER_LAYER_DELETED
p6
Vv1/GEOSERVER_LAYER_DELETED
p7
sVSIO_RASTER_READ_ERROR
p8
Vv1/SIO_RASTER_READ_ERROR
p9
sVGEOSERVER_CREATE_WORKSPACE_ERROR
p10
Vv1/GEOSERVER_CREATE_WORKSPACE_ERROR
p11
sVGEOSERVER_DATASTORE_UNAVAILABLE
p12
Vv1/GEOSERVER_DATASTORE_UNAVAILABLE
p13
sVGEOSERVER_INVALID_NAME_ERROR
p14
Vv1/GEOSERVER_INVALID_NAME_ERROR
p15
sVS3_ERROR
p16
Vv1/S3_ERROR
p17
sVPOSTGIS_LOAD_RECORDS_ERROR
p18
Vv1/POSTGIS_LOAD_RECORDS_ERROR
p19
sVSIO_FGDB_INVALID_ZIP_FILE_ERROR
p20
Vv1/SIO_FGDB_INVALID_ZIP_FILE_ERROR
p21
sVGEOSERVER_UNAVAILABLE
p22
Vv1/GEOSERVER_UNAVAILABLE
p23
sVSIO_INVALID_FILE_ERROR
p24
Vv1/SIO_INVALID_FILE_ERROR
p25
sVGEOSERVER_DELETE_FEATURETYPE_ERROR
p26
Vv1/GEOSERVER_DELETE_FEATURETYPE_ERROR
p27
sVSIO_IMPORT_SUCCESS
p28
Vv1/SIO_IMPORT_SUCCESS
p29
sVGEOSERVER_WORKSPACE_UNAVAILABLE
p30
Vv1/GEOSERVER_WORKSPACE_UNAVAILABLE
p31
sVGEOSERVER_LAYER_PUBLISHED
p32
Vv1/GEOSERVER_LAYER_PUBLISHED
p33
sVGEOSERVER_CREATE_DATASTORE_ERROR
p34
Vv1/GEOSERVER_CREATE_DATASTORE_ERROR
p35
sVSIO_SHP_MISMATCHED_GEOMETERY_TYPE_ERROR
p36
Vv1/SIO_SHP_MISMATCHED_GEOMETERY_TYPE_ERROR
p37
sVSIO_GEOJSON_INVALID_ATTRIBUTE_TYPE_ERROR
p38
Vv1/SIO_GEOJSON_INVALID_ATTRIBUTE_TYPE_ERROR
p39
sVGEOSERVER_LAYER_PUBLISH_ERROR
p40
Vv1/GEOSERVER_LAYER_PUBLISH_ERROR
p41
sVGEOSERVER_LAYER_UPDATED
p42
Vv1/GEOSERVER_LAYER_UPDATED
p43
sVGEOSERVER_UPDATE_FEATURETYPE_ERROR
p44
Vv1/GEOSERVER_UPDATE_FEATURETYPE_ERROR
p45
sVGEOSERVER_CREATE_FEATURETYPE_ERROR
p46
Vv1/GEOSERVER_CREATE_FEATURETYPE_ERROR
p47
sVSIO_GEOPKG_SCHEMA_MISSING_GEOM_ERROR
p48
Vv1/SIO_GEOPKG_SCHEMA_NO_GEOM_ERROR
p49
sVSIO_MISSING_PROJECTION_ERROR
p50
Vv1/SIO_MISSING_PROJECTION_ERROR
p51
sVNO_LAYERS_FOUND
p52
Vv1/NO_LAYERS_FOUND
p53
sS'_version'
p54
V0.17.0
p55
sVSIO_IMPORT_FAIL
p56
Vv1/SIO_IMPORT_FAIL
p57
sVGEOSERVER_PERMISSION_DENIED
p58
Vv1/GEOSERVER_PERMISSION_DENIED
p59
sVGDAL_INFO_ERROR
p60
Vv1/GDAL_INFO_ERROR
p61
sVNO_FILES_TO_PROCESS
p62
Vv1/NO_FILES_TO_PROCESS
p63
sVPOSTGIS_CREATE_TABLE_ERROR
p64
Vv1/POSTGIS_CREATE_TABLE_ERROR
p65
sVNOT_A_VALID_SPATIAL_FILE
p66
Vv1/NOT_A_VALID_SPATIAL_FILE
p67
sVSIO_INVALID_IMPORT_MSG_ERROR
p68
Vv1/SIO_INVALID_IMPORT_MSG_ERROR
p69
sVSIO_IMPORT_INFO
p70
Vv1/SIO_IMPORT_INFO
p71
s.